target datalayout = "e-m:e-p270:32:32-p271:32:32-p272:64:64-i64:64-i128:128-f80:128-n8:16:32:64-S128"
target triple = "x86_64-pc-linux-gnu"

%struct._address = type { i32, i32, ptr, ptr }
%struct.conversation_element = type { i32, %union.anon }
%union.anon = type { %struct._address }
%struct.conversation = type { ptr, ptr, ptr, i32, i32, i32, ptr, ptr, i32, ptr }

@conversation_hashtable_id = internal global ptr null, align 8

; Function Attrs: null_pointer_is_valid sspstrong uwtable
define internal ptr @conversation_lookup_hashtable(ptr noundef %0, i32 noundef %1, ptr noundef %2) #0 {
  %4 = alloca ptr, align 8
  %5 = alloca ptr, align 8
  %6 = alloca i32, align 4
  %7 = alloca ptr, align 8
  %8 = alloca ptr, align 8
  %9 = alloca ptr, align 8
  %10 = alloca ptr, align 8
  %11 = alloca i32, align 4
  store ptr %0, ptr %5, align 8
  store i32 %1, ptr %6, align 4
  store ptr %2, ptr %7, align 8
  call void @llvm.lifetime.start.p0(i64 8, ptr %8) #12
  store ptr null, ptr %8, align 8
  call void @llvm.lifetime.start.p0(i64 8, ptr %9) #12
  store ptr null, ptr %9, align 8
  call void @llvm.lifetime.start.p0(i64 8, ptr %10) #12
  store ptr null, ptr %10, align 8
  %12 = load ptr, ptr %5, align 8
  %13 = load ptr, ptr %7, align 8
  %14 = call ptr @wmem_map_lookup(ptr noundef %12, ptr noundef %13)
  store ptr %14, ptr %10, align 8
  %15 = load ptr, ptr %10, align 8
  %16 = icmp ne ptr %15, null
  br i1 %16, label %17, label %87

17:                                               ; preds = %3
  %18 = load ptr, ptr %10, align 8
  %19 = getelementptr inbounds nuw %struct.conversation, ptr %18, i32 0, i32 4
  %20 = load i32, ptr %19, align 4
  %21 = load i32, ptr %6, align 4
  %22 = icmp ule i32 %20, %21
  br i1 %22, label %23, label %87

23:                                               ; preds = %17
  %24 = load ptr, ptr %10, align 8
  store ptr %24, ptr %9, align 8
  %25 = load ptr, ptr %10, align 8
  %26 = getelementptr inbounds nuw %struct.conversation, ptr %25, i32 0, i32 1
  %27 = load ptr, ptr %26, align 8
  %28 = icmp ne ptr %27, null
  br i1 %28, label %29, label %41

29:                                               ; preds = %23
  %30 = load ptr, ptr %10, align 8
  %31 = getelementptr inbounds nuw %struct.conversation, ptr %30, i32 0, i32 1
  %32 = load ptr, ptr %31, align 8
  %33 = getelementptr inbounds nuw %struct.conversation, ptr %32, i32 0, i32 4
  %34 = load i32, ptr %33, align 4
  %35 = load i32, ptr %6, align 4
  %36 = icmp ule i32 %34, %35
  br i1 %36, label %37, label %41

37:                                               ; preds = %29
  %38 = load ptr, ptr %10, align 8
  %39 = getelementptr inbounds nuw %struct.conversation, ptr %38, i32 0, i32 1
  %40 = load ptr, ptr %39, align 8
  store ptr %40, ptr %4, align 8
  store i32 1, ptr %11, align 4
  br label %96

41:                                               ; preds = %29, %23
  %42 = load ptr, ptr %10, align 8
  %43 = getelementptr inbounds nuw %struct.conversation, ptr %42, i32 0, i32 2
  %44 = load ptr, ptr %43, align 8
  %45 = icmp ne ptr %44, null
  br i1 %45, label %46, label %58

46:                                               ; preds = %41
  %47 = load ptr, ptr %10, align 8
  %48 = getelementptr inbounds nuw %struct.conversation, ptr %47, i32 0, i32 2
  %49 = load ptr, ptr %48, align 8
  %50 = getelementptr inbounds nuw %struct.conversation, ptr %49, i32 0, i32 4
  %51 = load i32, ptr %50, align 4
  %52 = load i32, ptr %6, align 4
  %53 = icmp ule i32 %51, %52
  br i1 %53, label %54, label %58

54:                                               ; preds = %46
  %55 = load ptr, ptr %10, align 8
  %56 = getelementptr inbounds nuw %struct.conversation, ptr %55, i32 0, i32 2
  %57 = load ptr, ptr %56, align 8
  store ptr %57, ptr %9, align 8
  br label %58

58:                                               ; preds = %54, %46, %41
  %59 = load ptr, ptr %9, align 8
  store ptr %59, ptr %8, align 8
  br label %60

60:                                               ; preds = %82, %58
  %61 = load ptr, ptr %8, align 8
  %62 = icmp ne ptr %61, null
  br i1 %62, label %63, label %69

63:                                               ; preds = %60
  %64 = load ptr, ptr %8, align 8
  %65 = getelementptr inbounds nuw %struct.conversation, ptr %64, i32 0, i32 4
  %66 = load i32, ptr %65, align 4
  %67 = load i32, ptr %6, align 4
  %68 = icmp ule i32 %66, %67
  br label %69

69:                                               ; preds = %63, %60
  %70 = phi i1 [ false, %60 ], [ %68, %63 ]
  br i1 %70, label %71, label %86

71:                                               ; preds = %69
  %72 = load ptr, ptr %8, align 8
  %73 = getelementptr inbounds nuw %struct.conversation, ptr %72, i32 0, i32 4
  %74 = load i32, ptr %73, align 4
  %75 = load ptr, ptr %9, align 8
  %76 = getelementptr inbounds nuw %struct.conversation, ptr %75, i32 0, i32 4
  %77 = load i32, ptr %76, align 4
  %78 = icmp ugt i32 %74, %77
  br i1 %78, label %79, label %81

79:                                               ; preds = %71
  %80 = load ptr, ptr %8, align 8
  store ptr %80, ptr %9, align 8
  br label %81

81:                                               ; preds = %79, %71
  br label %82

82:                                               ; preds = %81
  %83 = load ptr, ptr %8, align 8
  %84 = getelementptr inbounds nuw %struct.conversation, ptr %83, i32 0, i32 0
  %85 = load ptr, ptr %84, align 8
  store ptr %85, ptr %8, align 8
  br label %60, !llvm.loop !14

86:                                               ; preds = %69
  br label %87

87:                                               ; preds = %86, %17, %3
  %88 = load ptr, ptr %9, align 8
  %89 = icmp ne ptr %88, null
  br i1 %89, label %90, label %94

90:                                               ; preds = %87
  %91 = load ptr, ptr %9, align 8
  %92 = load ptr, ptr %10, align 8
  %93 = getelementptr inbounds nuw %struct.conversation, ptr %92, i32 0, i32 2
  store ptr %91, ptr %93, align 8
  br label %94

94:                                               ; preds = %90, %87
  %95 = load ptr, ptr %9, align 8
  store ptr %95, ptr %4, align 8
  store i32 1, ptr %11, align 4
  br label %96

96:                                               ; preds = %94, %37
  call void @llvm.lifetime.end.p0(i64 8, ptr %10) #12
  call void @llvm.lifetime.end.p0(i64 8, ptr %9) #12
  call void @llvm.lifetime.end.p0(i64 8, ptr %8) #12
  %97 = load ptr, ptr %4, align 8
  ret ptr %97
}

; Function Attrs: null_pointer_is_valid sspstrong uwtable
define ptr @find_conversation_by_id(i32 noundef %0, i32 noundef %1, i32 noundef %2) #0 {
  %4 = alloca i32, align 4
  %5 = alloca i32, align 4
  %6 = alloca i32, align 4
  %7 = alloca [2 x %struct.conversation_element], align 16
  store i32 %0, ptr %4, align 4
  store i32 %1, ptr %5, align 4
  store i32 %2, ptr %6, align 4
  call void @llvm.lifetime.start.p0(i64 64, ptr %7) #12
  call void @llvm.memset.p0.i64(ptr align 16 %7, i8 0, i64 64, i1 false)
  %8 = getelementptr inbounds nuw %struct.conversation_element, ptr %7, i32 0, i32 0
  store i32 4, ptr %8, align 16
  %9 = getelementptr inbounds nuw %struct.conversation_element, ptr %7, i32 0, i32 1
  %10 = load i32, ptr %6, align 4
  store i32 %10, ptr %9, align 8
  %11 = getelementptr inbounds %struct.conversation_element, ptr %7, i64 1
  %12 = getelementptr inbounds nuw %struct.conversation_element, ptr %11, i32 0, i32 0
  store i32 0, ptr %12, align 16
  %13 = getelementptr inbounds nuw %struct.conversation_element, ptr %11, i32 0, i32 1
  %14 = load i32, ptr %5, align 4
  store i32 %14, ptr %13, align 8
  %15 = load ptr, ptr @conversation_hashtable_id, align 8
  %16 = load i32, ptr %4, align 4
  %17 = getelementptr inbounds [2 x %struct.conversation_element], ptr %7, i64 0, i64 0
  %18 = call ptr @conversation_lookup_hashtable(ptr noundef %15, i32 noundef %16, ptr noundef %17)
  call void @llvm.lifetime.end.p0(i64 64, ptr %7) #12
  ret ptr %18
}