; Function Attrs: null_pointer_is_valid sspstrong uwtable
define ptr @find_conversation_by_id(i32 noundef %0, i32 noundef %1, i32 noundef %2) local_unnamed_addr #0 {
  %4 = alloca [2 x %struct.conversation_element], align 16
  call void @llvm.lifetime.start.p0(i64 64, ptr nonnull %4) #15
  call void @llvm.memset.p0.i64(ptr noundef nonnull align 16 dereferenceable(64) %4, i8 0, i64 64, i1 false)
  store i32 4, ptr %4, align 16
  %5 = getelementptr inbounds nuw i8, ptr %4, i64 8
  store i32 %2, ptr %5, align 8
  %6 = getelementptr inbounds nuw i8, ptr %4, i64 40
  store i32 %1, ptr %6, align 8
  %7 = load ptr, ptr @conversation_hashtable_id, align 8
  %8 = call ptr @wmem_map_lookup(ptr noundef %7, ptr noundef nonnull %4)
  %.not.i = icmp eq ptr %8, null
  br i1 %.not.i, label %conversation_lookup_hashtable.exit, label %9

9:                                                ; preds = %3
  %10 = getelementptr inbounds nuw i8, ptr %8, i64 28
  %11 = load i32, ptr %10, align 4
  %.not33.i = icmp ugt i32 %11, %0
  br i1 %.not33.i, label %conversation_lookup_hashtable.exit, label %12

12:                                               ; preds = %9
  %13 = getelementptr inbounds nuw i8, ptr %8, i64 8
  %14 = load ptr, ptr %13, align 8
  %.not34.i = icmp eq ptr %14, null
  br i1 %.not34.i, label %18, label %15

15:                                               ; preds = %12
  %16 = getelementptr inbounds nuw i8, ptr %14, i64 28
  %17 = load i32, ptr %16, align 4
  %.not35.i = icmp ugt i32 %17, %0
  br i1 %.not35.i, label %18, label %conversation_lookup_hashtable.exit

18:                                               ; preds = %15, %12
  %19 = getelementptr inbounds nuw i8, ptr %8, i64 16
  %20 = load ptr, ptr %19, align 8
  %.not36.i = icmp eq ptr %20, null
  br i1 %.not36.i, label %.preheader, label %21

21:                                               ; preds = %18
  %22 = getelementptr inbounds nuw i8, ptr %20, i64 28
  %23 = load i32, ptr %22, align 4
  %.not37.i = icmp ugt i32 %23, %0
  %spec.select.i = select i1 %.not37.i, ptr %8, ptr %20
  br label %.preheader

.preheader:                                       ; preds = %21, %18
  %.02644.i.ph = phi ptr [ %spec.select.i, %21 ], [ %8, %18 ]
  br label %24

24:                                               ; preds = %.preheader, %27
  %.245.i = phi ptr [ %spec.select41.i, %27 ], [ %.02644.i.ph, %.preheader ]
  %.02644.i = phi ptr [ %31, %27 ], [ %.02644.i.ph, %.preheader ]
  %25 = getelementptr inbounds nuw i8, ptr %.02644.i, i64 28
  %26 = load i32, ptr %25, align 4
  %.not39.i = icmp ugt i32 %26, %0
  br i1 %.not39.i, label %.critedge.i, label %27

27:                                               ; preds = %24
  %28 = getelementptr inbounds nuw i8, ptr %.245.i, i64 28
  %29 = load i32, ptr %28, align 4
  %30 = icmp ugt i32 %26, %29
  %spec.select41.i = select i1 %30, ptr %.02644.i, ptr %.245.i
  %31 = load ptr, ptr %.02644.i, align 8
  %.not38.i = icmp eq ptr %31, null
  br i1 %.not38.i, label %.critedge.i, label %24, !llvm.loop !13

.critedge.i:                                      ; preds = %27, %24
  %.2.lcssa.i = phi ptr [ %.245.i, %24 ], [ %spec.select41.i, %27 ]
  %.not40.i = icmp eq ptr %.2.lcssa.i, null
  br i1 %.not40.i, label %conversation_lookup_hashtable.exit, label %32

32:                                               ; preds = %.critedge.i
  store ptr %.2.lcssa.i, ptr %19, align 8
  br label %conversation_lookup_hashtable.exit

conversation_lookup_hashtable.exit:               ; preds = %3, %9, %15, %.critedge.i, %32
  %.027.i = phi ptr [ %14, %15 ], [ %.2.lcssa.i, %32 ], [ null, %.critedge.i ], [ null, %9 ], [ null, %3 ]
  call void @llvm.lifetime.end.p0(i64 64, ptr nonnull %4) #15
  ret ptr %.027.i
}